target datalayout = "e-m:e-p270:32:32-p271:32:32-p272:64:64-i64:64-i128:128-f80:128-n8:16:32:64-S128"
target triple = "x86_64-pc-linux-gnu"

%struct.UDataMemory = type { ptr, ptr, ptr, i8, ptr, ptr, i32 }
%struct.PointerTOC = type { i32, i32, [1 x %struct.PointerTOCEntry] }
%struct.PointerTOCEntry = type { ptr, ptr }

; Function Attrs: mustprogress nounwind uwtable
define internal noundef i32 @_ZL17strcmpAfterPrefixPKcS0_Pi(ptr noundef %0, ptr noundef %1, ptr noundef %2) #0 {
  %4 = alloca ptr, align 8
  %5 = alloca ptr, align 8
  %6 = alloca ptr, align 8
  %7 = alloca i32, align 4
  %8 = alloca i32, align 4
  %9 = alloca i32, align 4
  %10 = alloca i32, align 4
  %11 = alloca i32, align 4
  store ptr %0, ptr %4, align 8, !tbaa !29
  store ptr %1, ptr %5, align 8, !tbaa !29
  store ptr %2, ptr %6, align 8, !tbaa !31
  call void @llvm.lifetime.start.p0(i64 4, ptr %7) #5
  %12 = load ptr, ptr %6, align 8, !tbaa !31
  %13 = load i32, ptr %12, align 4, !tbaa !35
  store i32 %13, ptr %7, align 4, !tbaa !35
  call void @llvm.lifetime.start.p0(i64 4, ptr %8) #5
  store i32 0, ptr %8, align 4, !tbaa !35
  %14 = load i32, ptr %7, align 4, !tbaa !35
  %15 = load ptr, ptr %4, align 8, !tbaa !29
  %16 = sext i32 %14 to i64
  %17 = getelementptr inbounds i8, ptr %15, i64 %16
  store ptr %17, ptr %4, align 8, !tbaa !29
  %18 = load i32, ptr %7, align 4, !tbaa !35
  %19 = load ptr, ptr %5, align 8, !tbaa !29
  %20 = sext i32 %18 to i64
  %21 = getelementptr inbounds i8, ptr %19, i64 %20
  store ptr %21, ptr %5, align 8, !tbaa !29
  br label %22

22:                                               ; preds = %45, %3
  call void @llvm.lifetime.start.p0(i64 4, ptr %9) #5
  %23 = load ptr, ptr %4, align 8, !tbaa !29
  %24 = getelementptr inbounds nuw i8, ptr %23, i32 1
  store ptr %24, ptr %4, align 8, !tbaa !29
  %25 = load i8, ptr %23, align 1, !tbaa !26
  %26 = zext i8 %25 to i32
  store i32 %26, ptr %9, align 4, !tbaa !35
  call void @llvm.lifetime.start.p0(i64 4, ptr %10) #5
  %27 = load ptr, ptr %5, align 8, !tbaa !29
  %28 = getelementptr inbounds nuw i8, ptr %27, i32 1
  store ptr %28, ptr %5, align 8, !tbaa !29
  %29 = load i8, ptr %27, align 1, !tbaa !26
  %30 = zext i8 %29 to i32
  store i32 %30, ptr %10, align 4, !tbaa !35
  %31 = load i32, ptr %9, align 4, !tbaa !35
  %32 = load i32, ptr %10, align 4, !tbaa !35
  %33 = sub nsw i32 %31, %32
  store i32 %33, ptr %8, align 4, !tbaa !35
  %34 = load i32, ptr %8, align 4, !tbaa !35
  %35 = icmp ne i32 %34, 0
  br i1 %35, label %39, label %36

36:                                               ; preds = %22
  %37 = load i32, ptr %9, align 4, !tbaa !35
  %38 = icmp eq i32 %37, 0
  br i1 %38, label %39, label %40

39:                                               ; preds = %36, %22
  store i32 2, ptr %11, align 4
  br label %43

40:                                               ; preds = %36
  %41 = load i32, ptr %7, align 4, !tbaa !35
  %42 = add nsw i32 %41, 1
  store i32 %42, ptr %7, align 4, !tbaa !35
  store i32 0, ptr %11, align 4
  br label %43

43:                                               ; preds = %40, %39
  call void @llvm.lifetime.end.p0(i64 4, ptr %10) #5
  call void @llvm.lifetime.end.p0(i64 4, ptr %9) #5
  %44 = load i32, ptr %11, align 4
  switch i32 %44, label %50 [
    i32 0, label %45
    i32 2, label %46
  ]

45:                                               ; preds = %43
  br label %22, !llvm.loop !41

46:                                               ; preds = %43
  %47 = load i32, ptr %7, align 4, !tbaa !35
  %48 = load ptr, ptr %6, align 8, !tbaa !31
  store i32 %47, ptr %48, align 4, !tbaa !35
  %49 = load i32, ptr %8, align 4, !tbaa !35
  store i32 1, ptr %11, align 4
  call void @llvm.lifetime.end.p0(i64 4, ptr %8) #5
  call void @llvm.lifetime.end.p0(i64 4, ptr %7) #5
  ret i32 %49

50:                                               ; preds = %43
  unreachable
}

; Function Attrs: mustprogress nounwind uwtable
define internal noundef i32 @_ZL28pointerTOCPrefixBinarySearchPKcPK15PointerTOCEntryi(ptr noundef %0, ptr noundef %1, i32 noundef %2) #0 {
  %4 = alloca i32, align 4
  %5 = alloca ptr, align 8
  %6 = alloca ptr, align 8
  %7 = alloca i32, align 4
  %8 = alloca i32, align 4
  %9 = alloca i32, align 4
  %10 = alloca i32, align 4
  %11 = alloca i32, align 4
  %12 = alloca i32, align 4
  %13 = alloca i32, align 4
  %14 = alloca i32, align 4
  %15 = alloca i32, align 4
  store ptr %0, ptr %5, align 8, !tbaa !29
  store ptr %1, ptr %6, align 8, !tbaa !3
  store i32 %2, ptr %7, align 4, !tbaa !35
  call void @llvm.lifetime.start.p0(i64 4, ptr %8) #5
  store i32 0, ptr %8, align 4, !tbaa !35
  call void @llvm.lifetime.start.p0(i64 4, ptr %9) #5
  %16 = load i32, ptr %7, align 4, !tbaa !35
  store i32 %16, ptr %9, align 4, !tbaa !35
  call void @llvm.lifetime.start.p0(i64 4, ptr %10) #5
  store i32 0, ptr %10, align 4, !tbaa !35
  call void @llvm.lifetime.start.p0(i64 4, ptr %11) #5
  store i32 0, ptr %11, align 4, !tbaa !35
  %17 = load i32, ptr %7, align 4, !tbaa !35
  %18 = icmp eq i32 %17, 0
  br i1 %18, label %19, label %20

19:                                               ; preds = %3
  store i32 -1, ptr %4, align 4
  store i32 1, ptr %12, align 4
  br label %92

20:                                               ; preds = %3
  %21 = load ptr, ptr %5, align 8, !tbaa !29
  %22 = load ptr, ptr %6, align 8, !tbaa !3
  %23 = getelementptr inbounds %struct.PointerTOCEntry, ptr %22, i64 0
  %24 = getelementptr inbounds nuw %struct.PointerTOCEntry, ptr %23, i32 0, i32 0
  %25 = load ptr, ptr %24, align 8, !tbaa !46
  %26 = call noundef i32 @_ZL17strcmpAfterPrefixPKcS0_Pi(ptr noundef %21, ptr noundef %25, ptr noundef %10)
  %27 = icmp eq i32 0, %26
  br i1 %27, label %28, label %29

28:                                               ; preds = %20
  store i32 0, ptr %4, align 4
  store i32 1, ptr %12, align 4
  br label %92

29:                                               ; preds = %20
  %30 = load i32, ptr %8, align 4, !tbaa !35
  %31 = add nsw i32 %30, 1
  store i32 %31, ptr %8, align 4, !tbaa !35
  %32 = load i32, ptr %9, align 4, !tbaa !35
  %33 = add nsw i32 %32, -1
  store i32 %33, ptr %9, align 4, !tbaa !35
  %34 = load ptr, ptr %5, align 8, !tbaa !29
  %35 = load ptr, ptr %6, align 8, !tbaa !3
  %36 = load i32, ptr %9, align 4, !tbaa !35
  %37 = sext i32 %36 to i64
  %38 = getelementptr inbounds %struct.PointerTOCEntry, ptr %35, i64 %37
  %39 = getelementptr inbounds nuw %struct.PointerTOCEntry, ptr %38, i32 0, i32 0
  %40 = load ptr, ptr %39, align 8, !tbaa !46
  %41 = call noundef i32 @_ZL17strcmpAfterPrefixPKcS0_Pi(ptr noundef %34, ptr noundef %40, ptr noundef %11)
  %42 = icmp eq i32 0, %41
  br i1 %42, label %43, label %45

43:                                               ; preds = %29
  %44 = load i32, ptr %9, align 4, !tbaa !35
  store i32 %44, ptr %4, align 4
  store i32 1, ptr %12, align 4
  br label %92

45:                                               ; preds = %29
  br label %46

46:                                               ; preds = %90, %45
  %47 = load i32, ptr %8, align 4, !tbaa !35
  %48 = load i32, ptr %9, align 4, !tbaa !35
  %49 = icmp slt i32 %47, %48
  br i1 %49, label %50, label %91

50:                                               ; preds = %46
  call void @llvm.lifetime.start.p0(i64 4, ptr %13) #5
  %51 = load i32, ptr %8, align 4, !tbaa !35
  %52 = load i32, ptr %9, align 4, !tbaa !35
  %53 = add nsw i32 %51, %52
  %54 = sdiv i32 %53, 2
  store i32 %54, ptr %13, align 4, !tbaa !35
  call void @llvm.lifetime.start.p0(i64 4, ptr %14) #5
  %55 = load i32, ptr %10, align 4, !tbaa !35
  %56 = load i32, ptr %11, align 4, !tbaa !35
  %57 = icmp slt i32 %55, %56
  br i1 %57, label %58, label %60

58:                                               ; preds = %50
  %59 = load i32, ptr %10, align 4, !tbaa !35
  br label %62

60:                                               ; preds = %50
  %61 = load i32, ptr %11, align 4, !tbaa !35
  br label %62

62:                                               ; preds = %60, %58
  %63 = phi i32 [ %59, %58 ], [ %61, %60 ]
  store i32 %63, ptr %14, align 4, !tbaa !35
  call void @llvm.lifetime.start.p0(i64 4, ptr %15) #5
  %64 = load ptr, ptr %5, align 8, !tbaa !29
  %65 = load ptr, ptr %6, align 8, !tbaa !3
  %66 = load i32, ptr %13, align 4, !tbaa !35
  %67 = sext i32 %66 to i64
  %68 = getelementptr inbounds %struct.PointerTOCEntry, ptr %65, i64 %67
  %69 = getelementptr inbounds nuw %struct.PointerTOCEntry, ptr %68, i32 0, i32 0
  %70 = load ptr, ptr %69, align 8, !tbaa !46
  %71 = call noundef i32 @_ZL17strcmpAfterPrefixPKcS0_Pi(ptr noundef %64, ptr noundef %70, ptr noundef %14)
  store i32 %71, ptr %15, align 4, !tbaa !35
  %72 = load i32, ptr %15, align 4, !tbaa !35
  %73 = icmp slt i32 %72, 0
  br i1 %73, label %74, label %77

74:                                               ; preds = %62
  %75 = load i32, ptr %13, align 4, !tbaa !35
  store i32 %75, ptr %9, align 4, !tbaa !35
  %76 = load i32, ptr %14, align 4, !tbaa !35
  store i32 %76, ptr %11, align 4, !tbaa !35
  br label %87

77:                                               ; preds = %62
  %78 = load i32, ptr %15, align 4, !tbaa !35
  %79 = icmp eq i32 %78, 0
  br i1 %79, label %80, label %82

80:                                               ; preds = %77
  %81 = load i32, ptr %13, align 4, !tbaa !35
  store i32 %81, ptr %4, align 4
  store i32 1, ptr %12, align 4
  br label %88

82:                                               ; preds = %77
  %83 = load i32, ptr %13, align 4, !tbaa !35
  %84 = add nsw i32 %83, 1
  store i32 %84, ptr %8, align 4, !tbaa !35
  %85 = load i32, ptr %14, align 4, !tbaa !35
  store i32 %85, ptr %10, align 4, !tbaa !35
  br label %86

86:                                               ; preds = %82
  br label %87

87:                                               ; preds = %86, %74
  store i32 0, ptr %12, align 4
  br label %88

88:                                               ; preds = %87, %80
  call void @llvm.lifetime.end.p0(i64 4, ptr %15) #5
  call void @llvm.lifetime.end.p0(i64 4, ptr %14) #5
  call void @llvm.lifetime.end.p0(i64 4, ptr %13) #5
  %89 = load i32, ptr %12, align 4
  switch i32 %89, label %92 [
    i32 0, label %90
  ]

90:                                               ; preds = %88
  br label %46, !llvm.loop !47

91:                                               ; preds = %46
  store i32 -1, ptr %4, align 4
  store i32 1, ptr %12, align 4
  br label %92

92:                                               ; preds = %91, %88, %43, %28, %19
  call void @llvm.lifetime.end.p0(i64 4, ptr %11) #5
  call void @llvm.lifetime.end.p0(i64 4, ptr %10) #5
  call void @llvm.lifetime.end.p0(i64 4, ptr %9) #5
  call void @llvm.lifetime.end.p0(i64 4, ptr %8) #5
  %93 = load i32, ptr %4, align 4
  ret i32 %93
}

; Function Attrs: mustprogress uwtable
define internal noundef ptr @_ZL18pointerTOCLookupFnPK11UDataMemoryPKcPiP10UErrorCode(ptr noundef %0, ptr noundef %1, ptr noundef %2, ptr noundef %3) #2 {
  %5 = alloca ptr, align 8
  %6 = alloca ptr, align 8
  %7 = alloca ptr, align 8
  %8 = alloca ptr, align 8
  %9 = alloca ptr, align 8
  %10 = alloca ptr, align 8
  %11 = alloca i32, align 4
  %12 = alloca i32, align 4
  %13 = alloca i32, align 4
  store ptr %0, ptr %6, align 8, !tbaa !16
  store ptr %1, ptr %7, align 8, !tbaa !29
  store ptr %2, ptr %8, align 8, !tbaa !31
  store ptr %3, ptr %9, align 8, !tbaa !3
  %14 = load ptr, ptr %6, align 8, !tbaa !16
  %15 = getelementptr inbounds nuw %struct.UDataMemory, ptr %14, i32 0, i32 2
  %16 = load ptr, ptr %15, align 8, !tbaa !28
  %17 = icmp ne ptr %16, null
  br i1 %17, label %18, label %45

18:                                               ; preds = %4
  call void @llvm.lifetime.start.p0(i64 8, ptr %10) #5
  %19 = load ptr, ptr %6, align 8, !tbaa !16
  %20 = getelementptr inbounds nuw %struct.UDataMemory, ptr %19, i32 0, i32 2
  %21 = load ptr, ptr %20, align 8, !tbaa !28
  store ptr %21, ptr %10, align 8, !tbaa !3
  call void @llvm.lifetime.start.p0(i64 4, ptr %11) #5
  call void @llvm.lifetime.start.p0(i64 4, ptr %12) #5
  %22 = load ptr, ptr %10, align 8, !tbaa !3
  %23 = getelementptr inbounds nuw %struct.PointerTOC, ptr %22, i32 0, i32 0
  %24 = load i32, ptr %23, align 8, !tbaa !42
  store i32 %24, ptr %12, align 4, !tbaa !35
  %25 = load ptr, ptr %7, align 8, !tbaa !29
  %26 = load ptr, ptr %10, align 8, !tbaa !3
  %27 = getelementptr inbounds nuw %struct.PointerTOC, ptr %26, i32 0, i32 2
  %28 = getelementptr inbounds [1 x %struct.PointerTOCEntry], ptr %27, i64 0, i64 0
  %29 = load i32, ptr %12, align 4, !tbaa !35
  %30 = call noundef i32 @_ZL28pointerTOCPrefixBinarySearchPKcPK15PointerTOCEntryi(ptr noundef %25, ptr noundef %28, i32 noundef %29)
  store i32 %30, ptr %11, align 4, !tbaa !35
  %31 = load i32, ptr %11, align 4, !tbaa !35
  %32 = icmp sge i32 %31, 0
  br i1 %32, label %33, label %43

33:                                               ; preds = %18
  %34 = load ptr, ptr %8, align 8, !tbaa !31
  store i32 -1, ptr %34, align 4, !tbaa !35
  %35 = load ptr, ptr %10, align 8, !tbaa !3
  %36 = getelementptr inbounds nuw %struct.PointerTOC, ptr %35, i32 0, i32 2
  %37 = load i32, ptr %11, align 4, !tbaa !35
  %38 = sext i32 %37 to i64
  %39 = getelementptr inbounds [1 x %struct.PointerTOCEntry], ptr %36, i64 0, i64 %38
  %40 = getelementptr inbounds nuw %struct.PointerTOCEntry, ptr %39, i32 0, i32 1
  %41 = load ptr, ptr %40, align 8, !tbaa !44
  %42 = call ptr @UDataMemory_normalizeDataPointer_77(ptr noundef %41)
  store ptr %42, ptr %5, align 8
  store i32 1, ptr %13, align 4
  br label %44

43:                                               ; preds = %18
  store ptr null, ptr %5, align 8
  store i32 1, ptr %13, align 4
  br label %44

44:                                               ; preds = %43, %33
  call void @llvm.lifetime.end.p0(i64 4, ptr %12) #5
  call void @llvm.lifetime.end.p0(i64 4, ptr %11) #5
  call void @llvm.lifetime.end.p0(i64 8, ptr %10) #5
  br label %49

45:                                               ; preds = %4
  %46 = load ptr, ptr %6, align 8, !tbaa !16
  %47 = getelementptr inbounds nuw %struct.UDataMemory, ptr %46, i32 0, i32 1
  %48 = load ptr, ptr %47, align 8, !tbaa !20
  store ptr %48, ptr %5, align 8
  br label %49

49:                                               ; preds = %45, %44
  %50 = load ptr, ptr %5, align 8
  ret ptr %50
}