; Function Attrs: mustprogress uwtable
define internal noundef ptr @_ZL18pointerTOCLookupFnPK11UDataMemoryPKcPiP10UErrorCode(ptr noundef readonly captures(none) %0, ptr noundef readonly captures(none) %1, ptr noundef writeonly captures(none) %2, ptr readnone captures(none) %3) #1 {
  %5 = getelementptr inbounds nuw i8, ptr %0, i64 16
  %6 = load ptr, ptr %5, align 8, !tbaa !24
  %.not = icmp eq ptr %6, null
  br i1 %.not, label %66, label %7

7:                                                ; preds = %4
  %8 = load i32, ptr %6, align 8, !tbaa !33
  %9 = getelementptr inbounds nuw i8, ptr %6, i64 8
  %10 = icmp eq i32 %8, 0
  br i1 %10, label %_ZL28pointerTOCPrefixBinarySearchPKcPK15PointerTOCEntryi.exit.thread, label %11

11:                                               ; preds = %7
  %12 = load ptr, ptr %9, align 8, !tbaa !35
  br label %13

13:                                               ; preds = %13, %11
  %.018.i.i = phi i32 [ 0, %11 ], [ %20, %13 ]
  %.017.i.i = phi ptr [ %12, %11 ], [ %16, %13 ]
  %.016.i.i = phi ptr [ %1, %11 ], [ %14, %13 ]
  %14 = getelementptr inbounds nuw i8, ptr %.016.i.i, i64 1
  %15 = load i8, ptr %.016.i.i, align 1, !tbaa !22
  %16 = getelementptr inbounds nuw i8, ptr %.017.i.i, i64 1
  %17 = load i8, ptr %.017.i.i, align 1, !tbaa !22
  %18 = icmp ne i8 %15, %17
  %19 = icmp eq i8 %15, 0
  %or.cond.i.i = or i1 %19, %18
  %20 = add nuw nsw i32 %.018.i.i, 1
  br i1 %or.cond.i.i, label %_ZL17strcmpAfterPrefixPKcS0_Pi.exit.i, label %13

_ZL17strcmpAfterPrefixPKcS0_Pi.exit.i:            ; preds = %13
  %21 = icmp eq i8 %15, %17
  br i1 %21, label %_ZL28pointerTOCPrefixBinarySearchPKcPK15PointerTOCEntryi.exit.thread15, label %22

22:                                               ; preds = %_ZL17strcmpAfterPrefixPKcS0_Pi.exit.i
  %23 = add nsw i32 %8, -1
  %24 = sext i32 %23 to i64
  %25 = getelementptr inbounds %struct.PointerTOCEntry, ptr %9, i64 %24
  %26 = load ptr, ptr %25, align 8, !tbaa !35
  br label %27

27:                                               ; preds = %27, %22
  %.018.i32.i = phi i32 [ 0, %22 ], [ %34, %27 ]
  %.017.i33.i = phi ptr [ %26, %22 ], [ %30, %27 ]
  %.016.i34.i = phi ptr [ %1, %22 ], [ %28, %27 ]
  %28 = getelementptr inbounds nuw i8, ptr %.016.i34.i, i64 1
  %29 = load i8, ptr %.016.i34.i, align 1, !tbaa !22
  %30 = getelementptr inbounds nuw i8, ptr %.017.i33.i, i64 1
  %31 = load i8, ptr %.017.i33.i, align 1, !tbaa !22
  %32 = icmp ne i8 %29, %31
  %33 = icmp eq i8 %29, 0
  %or.cond.i35.i = or i1 %33, %32
  %34 = add nuw nsw i32 %.018.i32.i, 1
  br i1 %or.cond.i35.i, label %_ZL17strcmpAfterPrefixPKcS0_Pi.exit36.i, label %27

_ZL17strcmpAfterPrefixPKcS0_Pi.exit36.i:          ; preds = %27
  %35 = icmp eq i8 %29, %31
  br i1 %35, label %_ZL28pointerTOCPrefixBinarySearchPKcPK15PointerTOCEntryi.exit, label %.preheader.i

.preheader.i:                                     ; preds = %_ZL17strcmpAfterPrefixPKcS0_Pi.exit36.i
  %36 = icmp sgt i32 %8, 2
  br i1 %36, label %.lr.ph.i, label %_ZL28pointerTOCPrefixBinarySearchPKcPK15PointerTOCEntryi.exit.thread

.lr.ph.i:                                         ; preds = %.preheader.i, %59
  %.02366.i = phi i32 [ %.225.i, %59 ], [ 1, %.preheader.i ]
  %.02765.i = phi i32 [ %.229.i, %59 ], [ %23, %.preheader.i ]
  %.04864.i = phi i32 [ %.149.i, %59 ], [ %.018.i32.i, %.preheader.i ]
  %.05063.i = phi i32 [ %.151.i, %59 ], [ %.018.i.i, %.preheader.i ]
  %37 = add nuw nsw i32 %.02765.i, %.02366.i
  %38 = lshr i32 %37, 1
  %39 = tail call i32 @llvm.smin.i32(i32 %.05063.i, i32 %.04864.i)
  %40 = zext nneg i32 %38 to i64
  %41 = getelementptr inbounds nuw %struct.PointerTOCEntry, ptr %9, i64 %40
  %42 = load ptr, ptr %41, align 8, !tbaa !35
  %43 = sext i32 %39 to i64
  %44 = getelementptr inbounds i8, ptr %1, i64 %43
  %45 = getelementptr inbounds i8, ptr %42, i64 %43
  br label %46

46:                                               ; preds = %46, %.lr.ph.i
  %.018.i37.i = phi i32 [ %39, %.lr.ph.i ], [ %53, %46 ]
  %.017.i38.i = phi ptr [ %45, %.lr.ph.i ], [ %49, %46 ]
  %.016.i39.i = phi ptr [ %44, %.lr.ph.i ], [ %47, %46 ]
  %47 = getelementptr inbounds nuw i8, ptr %.016.i39.i, i64 1
  %48 = load i8, ptr %.016.i39.i, align 1, !tbaa !22
  %49 = getelementptr inbounds nuw i8, ptr %.017.i38.i, i64 1
  %50 = load i8, ptr %.017.i38.i, align 1, !tbaa !22
  %51 = icmp ne i8 %48, %50
  %52 = icmp eq i8 %48, 0
  %or.cond.i40.i = or i1 %52, %51
  %53 = add nsw i32 %.018.i37.i, 1
  br i1 %or.cond.i40.i, label %_ZL17strcmpAfterPrefixPKcS0_Pi.exit41.i, label %46

_ZL17strcmpAfterPrefixPKcS0_Pi.exit41.i:          ; preds = %46
  %54 = icmp ult i8 %48, %50
  br i1 %54, label %59, label %55

55:                                               ; preds = %_ZL17strcmpAfterPrefixPKcS0_Pi.exit41.i
  %56 = icmp eq i8 %48, %50
  br i1 %56, label %_ZL28pointerTOCPrefixBinarySearchPKcPK15PointerTOCEntryi.exit.thread15, label %57

57:                                               ; preds = %55
  %58 = add nuw nsw i32 %38, 1
  br label %59

59:                                               ; preds = %57, %_ZL17strcmpAfterPrefixPKcS0_Pi.exit41.i
  %.151.i = phi i32 [ %.018.i37.i, %57 ], [ %.05063.i, %_ZL17strcmpAfterPrefixPKcS0_Pi.exit41.i ]
  %.149.i = phi i32 [ %.04864.i, %57 ], [ %.018.i37.i, %_ZL17strcmpAfterPrefixPKcS0_Pi.exit41.i ]
  %.229.i = phi i32 [ %.02765.i, %57 ], [ %38, %_ZL17strcmpAfterPrefixPKcS0_Pi.exit41.i ]
  %.225.i = phi i32 [ %58, %57 ], [ %.02366.i, %_ZL17strcmpAfterPrefixPKcS0_Pi.exit41.i ]
  %60 = icmp slt i32 %.225.i, %.229.i
  br i1 %60, label %.lr.ph.i, label %_ZL28pointerTOCPrefixBinarySearchPKcPK15PointerTOCEntryi.exit.thread, !llvm.loop !38

_ZL28pointerTOCPrefixBinarySearchPKcPK15PointerTOCEntryi.exit: ; preds = %_ZL17strcmpAfterPrefixPKcS0_Pi.exit36.i
  %61 = icmp sgt i32 %8, 0
  br i1 %61, label %_ZL28pointerTOCPrefixBinarySearchPKcPK15PointerTOCEntryi.exit.thread15, label %_ZL28pointerTOCPrefixBinarySearchPKcPK15PointerTOCEntryi.exit.thread

_ZL28pointerTOCPrefixBinarySearchPKcPK15PointerTOCEntryi.exit.thread15: ; preds = %55, %_ZL17strcmpAfterPrefixPKcS0_Pi.exit.i, %_ZL28pointerTOCPrefixBinarySearchPKcPK15PointerTOCEntryi.exit
  %.0.i17 = phi i32 [ %23, %_ZL28pointerTOCPrefixBinarySearchPKcPK15PointerTOCEntryi.exit ], [ 0, %_ZL17strcmpAfterPrefixPKcS0_Pi.exit.i ], [ %38, %55 ]
  store i32 -1, ptr %2, align 4, !tbaa !32
  %62 = zext nneg i32 %.0.i17 to i64
  %.idx = shl nuw nsw i64 %62, 4
  %.offs = or disjoint i64 %.idx, 8
  %63 = getelementptr inbounds nuw i8, ptr %9, i64 %.offs
  %64 = load ptr, ptr %63, align 8, !tbaa !39
  %65 = tail call ptr @UDataMemory_normalizeDataPointer_77(ptr noundef %64)
  br label %_ZL28pointerTOCPrefixBinarySearchPKcPK15PointerTOCEntryi.exit.thread

66:                                               ; preds = %4
  %67 = getelementptr inbounds nuw i8, ptr %0, i64 8
  %68 = load ptr, ptr %67, align 8, !tbaa !15
  br label %_ZL28pointerTOCPrefixBinarySearchPKcPK15PointerTOCEntryi.exit.thread

_ZL28pointerTOCPrefixBinarySearchPKcPK15PointerTOCEntryi.exit.thread: ; preds = %59, %.preheader.i, %7, %_ZL28pointerTOCPrefixBinarySearchPKcPK15PointerTOCEntryi.exit.thread15, %_ZL28pointerTOCPrefixBinarySearchPKcPK15PointerTOCEntryi.exit, %66
  %.1 = phi ptr [ %68, %66 ], [ %65, %_ZL28pointerTOCPrefixBinarySearchPKcPK15PointerTOCEntryi.exit.thread15 ], [ null, %_ZL28pointerTOCPrefixBinarySearchPKcPK15PointerTOCEntryi.exit ], [ null, %7 ], [ null, %.preheader.i ], [ null, %59 ]
  ret ptr %.1
}